; ModuleID = '15/1613.c'
source_filename = "15/1613.c"
target datalayout = "e-m:e-p270:32:32-p271:32:32-p272:64:64-i64:64-f80:128-n8:16:32:64-S128"
target triple = "x86_64-pc-linux-gnu"

@.str = private unnamed_addr constant [3 x i8] c"%d\00", align 1
@.str.1 = private unnamed_addr constant [4 x i8] c"%d\0A\00", align 1

; Function Attrs: noinline nounwind uwtable
define dso_local i32 @main() #0 {
  %1 = alloca i32, align 4
  %2 = alloca i32, align 4
  %3 = alloca i32, align 4
  %4 = alloca i32, align 4
  %5 = alloca i32, align 4
  %6 = alloca i32, align 4
  %7 = alloca i32, align 4
  %8 = alloca [100 x [100 x i32]], align 16
  %9 = alloca i32, align 4
  %10 = alloca i32, align 4
  %11 = alloca i32, align 4
  store i32 0, i32* %1, align 4
  %12 = call i32 (i8*, ...) @__isoc99_scanf(i8* getelementptr inbounds ([3 x i8], [3 x i8]* @.str, i64 0, i64 0), i32* %7)
  store i32 0, i32* %9, align 4
  store i32 0, i32* %3, align 4
  store i32 0, i32* %4, align 4
  store i32 0, i32* %5, align 4
  store i32 0, i32* %6, align 4
  store i32 0, i32* %10, align 4
  br label %13

13:                                               ; preds = %63, %0
  %14 = load i32, i32* %10, align 4
  %15 = load i32, i32* %7, align 4
  %16 = icmp slt i32 %14, %15
  br i1 %16, label %17, label %66

17:                                               ; preds = %13
  store i32 0, i32* %11, align 4
  br label %18

18:                                               ; preds = %59, %17
  %19 = load i32, i32* %11, align 4
  %20 = load i32, i32* %7, align 4
  %21 = icmp slt i32 %19, %20
  br i1 %21, label %22, label %62

22:                                               ; preds = %18
  %23 = load i32, i32* %10, align 4
  %24 = sext i32 %23 to i64
  %25 = getelementptr inbounds [100 x [100 x i32]], [100 x [100 x i32]]* %8, i64 0, i64 %24
  %26 = load i32, i32* %11, align 4
  %27 = sext i32 %26 to i64
  %28 = getelementptr inbounds [100 x i32], [100 x i32]* %25, i64 0, i64 %27
  %29 = call i32 (i8*, ...) @__isoc99_scanf(i8* getelementptr inbounds ([3 x i8], [3 x i8]* @.str, i64 0, i64 0), i32* %28)
  %30 = load i32, i32* %10, align 4
  %31 = sext i32 %30 to i64
  %32 = getelementptr inbounds [100 x [100 x i32]], [100 x [100 x i32]]* %8, i64 0, i64 %31
  %33 = load i32, i32* %11, align 4
  %34 = sext i32 %33 to i64
  %35 = getelementptr inbounds [100 x i32], [100 x i32]* %32, i64 0, i64 %34
  %36 = load i32, i32* %35, align 4
  %37 = icmp eq i32 %36, 0
  br i1 %37, label %38, label %46

38:                                               ; preds = %22
  %39 = load i32, i32* %9, align 4
  %40 = icmp eq i32 %39, 0
  br i1 %40, label %41, label %46

41:                                               ; preds = %38
  store i32 1, i32* %9, align 4
  %42 = load i32, i32* %10, align 4
  %43 = add nsw i32 %42, 1
  store i32 %43, i32* %3, align 4
  %44 = load i32, i32* %11, align 4
  %45 = add nsw i32 %44, 1
  store i32 %45, i32* %4, align 4
  br label %46

46:                                               ; preds = %41, %38, %22
  %47 = load i32, i32* %10, align 4
  %48 = sext i32 %47 to i64
  %49 = getelementptr inbounds [100 x [100 x i32]], [100 x [100 x i32]]* %8, i64 0, i64 %48
  %50 = load i32, i32* %11, align 4
  %51 = sext i32 %50 to i64
  %52 = getelementptr inbounds [100 x i32], [100 x i32]* %49, i64 0, i64 %51
  %53 = load i32, i32* %52, align 4
  %54 = icmp eq i32 %53, 0
  br i1 %54, label %55, label %58

55:                                               ; preds = %46
  %56 = load i32, i32* %10, align 4
  store i32 %56, i32* %5, align 4
  %57 = load i32, i32* %11, align 4
  store i32 %57, i32* %6, align 4
  br label %58

58:                                               ; preds = %55, %46
  br label %59

59:                                               ; preds = %58
  %60 = load i32, i32* %11, align 4
  %61 = add nsw i32 %60, 1
  store i32 %61, i32* %11, align 4
  br label %18

62:                                               ; preds = %18
  br label %63

63:                                               ; preds = %62
  %64 = load i32, i32* %10, align 4
  %65 = add nsw i32 %64, 1
  store i32 %65, i32* %10, align 4
  br label %13

66:                                               ; preds = %13
  %67 = load i32, i32* %5, align 4
  %68 = load i32, i32* %3, align 4
  %69 = sub nsw i32 %67, %68
  %70 = load i32, i32* %6, align 4
  %71 = load i32, i32* %4, align 4
  %72 = sub nsw i32 %70, %71
  %73 = mul nsw i32 %69, %72
  store i32 %73, i32* %2, align 4
  %74 = load i32, i32* %2, align 4
  %75 = call i32 (i8*, ...) @printf(i8* getelementptr inbounds ([4 x i8], [4 x i8]* @.str.1, i64 0, i64 0), i32 %74)
  ret i32 0
}

declare dso_local i32 @__isoc99_scanf(i8*, ...) #1

declare dso_local i32 @printf(i8*, ...) #1


!llvm.module.flags = !{!0}
!llvm.ident = !{!1}

!0 = !{i32 1, !"wchar_size", i32 4}
!1 = !{!"clang version 10.0.0-4ubuntu1 "}
